Certificate:
    Data:
        Version: 3 (0x2)
        Serial Number:
            33:e3:07:2d:3f:f4:89:3a:ed:d6:7a:37:c5:ed:7a:97
        Signature Algorithm: sha256WithRSAEncryption
        Issuer: CN=kaliVPN-CA
        Validity
            Not Before: Dec  2 11:15:55 2025 GMT
            Not After : Mar  6 11:15:55 2028 GMT
        Subject: CN=attacker
        Subject Public Key Info:
            Public Key Algorithm: rsaEncryption
                Public-Key: (2048 bit)
                Modulus:
                    00:da:fb:5c:27:fb:70:d6:85:19:8c:1a:d6:3b:16:
                    68:1d:91:6f:1c:33:21:8c:f1:93:63:ff:7f:3d:51:
                    a5:dd:59:69:9e:0f:28:c1:26:26:40:30:2f:0e:16:
                    81:9c:37:e7:16:3f:a0:26:e9:0a:4c:de:bd:46:44:
                    83:56:20:8d:0c:52:5e:a2:6f:eb:90:54:e2:59:75:
                    af:a9:3f:b9:f5:b8:76:25:1f:d6:7a:c3:b6:ec:2e:
                    62:23:85:ef:e3:ad:84:a0:52:26:b8:6d:1c:3b:3c:
                    f5:4b:3e:3c:84:01:2f:39:e0:0e:30:0a:e3:a5:99:
                    0f:49:91:2e:99:0f:4a:6e:17:1c:fa:2a:14:ec:d3:
                    ed:55:17:43:20:88:1f:11:ff:39:d8:34:6b:a5:4a:
                    76:d5:60:58:5d:77:64:60:2b:fa:3f:22:e2:93:47:
                    21:7f:09:12:3b:e9:ac:38:c5:99:e2:92:0c:1c:e4:
                    6e:62:66:9d:94:e5:87:80:42:de:6d:41:88:35:8b:
                    73:ad:85:c4:85:95:a2:8d:c4:b8:45:e2:59:30:73:
                    b6:de:89:bd:fa:59:8b:9f:b3:3a:2d:62:16:1b:24:
                    b1:4b:9a:76:2b:0a:b4:52:6c:e6:fc:f0:25:3d:df:
                    9f:f5:a8:9b:a4:ae:65:0c:d4:4e:13:5b:09:2f:91:
                    d5:a5
                Exponent: 65537 (0x10001)
        X509v3 extensions:
            X509v3 Basic Constraints: 
                CA:FALSE
            X509v3 Subject Key Identifier: 
                0F:D5:1A:AB:C2:72:C6:45:E4:B1:84:D7:28:77:A8:99:1E:92:3C:4B
            X509v3 Authority Key Identifier: 
                keyid:71:3A:DB:92:A2:7C:0C:F7:AF:5D:12:9A:C3:16:33:CA:BF:B3:86:21
                DirName:/CN=kaliVPN-CA
                serial:37:D2:DD:86:1E:DF:1C:1E:13:30:5F:27:E3:CB:A3:0B:74:D2:CB:7F
            X509v3 Extended Key Usage: 
                TLS Web Client Authentication
            X509v3 Key Usage: 
                Digital Signature
    Signature Algorithm: sha256WithRSAEncryption
    Signature Value:
        6c:d3:35:3e:78:09:d8:12:3c:55:7c:c0:f5:7c:a1:00:4c:83:
        f2:8a:df:5a:58:21:ca:ee:84:74:a5:8f:25:30:28:70:73:99:
        db:99:dd:8e:73:a4:30:25:22:71:22:04:1f:a4:9d:13:1f:94:
        bb:11:a1:1c:82:de:96:2a:a4:a5:2d:7b:c9:02:83:56:3f:aa:
        33:7a:e2:4b:1e:f8:41:b7:9f:d9:f4:20:60:65:58:5d:a7:36:
        df:28:30:98:4e:ed:2f:0c:ca:68:a6:95:0b:72:a6:f2:ca:cd:
        f2:c2:4f:5a:24:84:df:27:24:92:fc:87:22:55:84:85:d1:a2:
        a8:b5:ec:07:04:2d:cf:5f:d8:4b:a4:23:3f:67:2f:2a:aa:38:
        45:fe:c3:cd:2f:d4:cf:18:cd:3c:0b:72:c4:ee:92:b0:de:99:
        97:f4:02:6e:83:bb:c4:27:7a:99:2b:05:b5:52:dc:c7:ce:65:
        00:6a:5f:d3:0e:1a:41:44:57:48:f6:ff:d6:b0:b6:8b:c5:f9:
        09:9b:a7:5f:06:1d:2e:66:78:02:b2:2a:19:14:c4:3a:3d:3d:
        e5:41:20:21:57:75:47:c9:be:78:4b:ad:fe:ec:12:e0:d0:f9:
        38:8f:c2:66:e2:cd:fa:9a:a6:86:ac:ba:cb:f7:95:56:0d:93:
        6e:ff:21:c4
-----BEGIN CERTIFICATE-----
MIIDVDCCAjygAwIBAgIQM+MHLT/0iTrt1no3xe16lzANBgkqhkiG9w0BAQsFADAV
MRMwEQYDVQQDDAprYWxpVlBOLUNBMB4XDTI1MTIwMjExMTU1NVoXDTI4MDMwNjEx
MTU1NVowEzERMA8GA1UEAwwIYXR0YWNrZXIwggEiMA0GCSqGSIb3DQEBAQUAA4IB
DwAwggEKAoIBAQDa+1wn+3DWhRmMGtY7FmgdkW8cMyGM8ZNj/389UaXdWWmeDyjB
JiZAMC8OFoGcN+cWP6Am6QpM3r1GRINWII0MUl6ib+uQVOJZda+pP7n1uHYlH9Z6
w7bsLmIjhe/jrYSgUia4bRw7PPVLPjyEAS854A4wCuOlmQ9JkS6ZD0puFxz6KhTs
0+1VF0MgiB8R/znYNGulSnbVYFhdd2RgK/o/IuKTRyF/CRI76aw4xZnikgwc5G5i
Zp2U5YeAQt5tQYg1i3OthcSFlaKNxLhF4lkwc7beib36WYufszotYhYbJLFLmnYr
CrRSbOb88CU935/1qJukrmUM1E4TWwkvkdWlAgMBAAGjgaEwgZ4wCQYDVR0TBAIw
ADAdBgNVHQ4EFgQUD9Uaq8JyxkXksYTXKHeomR6SPEswUAYDVR0jBEkwR4AUcTrb
kqJ8DPevXRKawxYzyr+zhiGhGaQXMBUxEzARBgNVBAMMCmthbGlWUE4tQ0GCFDfS
3YYe3xweEzBfJ+PLowt00st/MBMGA1UdJQQMMAoGCCsGAQUFBwMCMAsGA1UdDwQE
AwIHgDANBgkqhkiG9w0BAQsFAAOCAQEAbNM1PngJ2BI8VXzA9XyhAEyD8orfWlgh
yu6EdKWPJTAocHOZ25ndjnOkMCUicSIEH6SdEx+UuxGhHILeliqkpS17yQKDVj+q
M3riSx74Qbef2fQgYGVYXac23ygwmE7tLwzKaKaVC3Km8srN8sJPWiSE3yckkvyH
IlWEhdGiqLXsBwQtz1/YS6QjP2cvKqo4Rf7DzS/UzxjNPAtyxO6SsN6Zl/QCboO7
xCd6mSsFtVLcx85lAGpf0w4aQURXSPb/1rC2i8X5CZunXwYdLmZ4ArIqGRTEOj09
5UEgIVd1R8m+eEut/uwS4ND5OI/CZuLN+pqmhqy6y/eVVg2Tbv8hxA==
-----END CERTIFICATE-----
